target datalayout = "e-m:e-p270:32:32-p271:32:32-p272:64:64-i64:64-i128:128-f80:128-n8:16:32:64-S128"
target triple = "x86_64-pc-linux-gnu"

%struct.llvm_regex = type { i32, i64, ptr, ptr }
%struct.re_guts = type { i32, ptr, i32, i32, ptr, ptr, i32, i64, i64, i64, i32, i32, i32, i32, ptr, ptr, i32, i64, i32, i64, [1 x i8] }

; Function Attrs: nounwind uwtable
define dso_local void @llvm_regfree(ptr noundef %0) #0 {
  %2 = alloca ptr, align 8
  %3 = alloca ptr, align 8
  store ptr %0, ptr %2, align 8
  %4 = load ptr, ptr %2, align 8
  %5 = getelementptr inbounds nuw %struct.llvm_regex, ptr %4, i32 0, i32 0
  %6 = load i32, ptr %5, align 8
  %7 = icmp ne i32 %6, 62053
  br i1 %7, label %8, label %9

8:                                                ; preds = %1
  br label %63

9:                                                ; preds = %1
  %10 = load ptr, ptr %2, align 8
  %11 = getelementptr inbounds nuw %struct.llvm_regex, ptr %10, i32 0, i32 3
  %12 = load ptr, ptr %11, align 8
  store ptr %12, ptr %3, align 8
  %13 = load ptr, ptr %3, align 8
  %14 = icmp eq ptr %13, null
  br i1 %14, label %20, label %15

15:                                               ; preds = %9
  %16 = load ptr, ptr %3, align 8
  %17 = getelementptr inbounds nuw %struct.re_guts, ptr %16, i32 0, i32 0
  %18 = load i32, ptr %17, align 8
  %19 = icmp ne i32 %18, 53829
  br i1 %19, label %20, label %21

20:                                               ; preds = %15, %9
  br label %63

21:                                               ; preds = %15
  %22 = load ptr, ptr %2, align 8
  %23 = getelementptr inbounds nuw %struct.llvm_regex, ptr %22, i32 0, i32 0
  store i32 0, ptr %23, align 8
  %24 = load ptr, ptr %3, align 8
  %25 = getelementptr inbounds nuw %struct.re_guts, ptr %24, i32 0, i32 0
  store i32 0, ptr %25, align 8
  %26 = load ptr, ptr %3, align 8
  %27 = getelementptr inbounds nuw %struct.re_guts, ptr %26, i32 0, i32 1
  %28 = load ptr, ptr %27, align 8
  %29 = icmp ne ptr %28, null
  br i1 %29, label %30, label %34

30:                                               ; preds = %21
  %31 = load ptr, ptr %3, align 8
  %32 = getelementptr inbounds nuw %struct.re_guts, ptr %31, i32 0, i32 1
  %33 = load ptr, ptr %32, align 8
  call void @free(ptr noundef %33) #2
  br label %34

34:                                               ; preds = %30, %21
  %35 = load ptr, ptr %3, align 8
  %36 = getelementptr inbounds nuw %struct.re_guts, ptr %35, i32 0, i32 4
  %37 = load ptr, ptr %36, align 8
  %38 = icmp ne ptr %37, null
  br i1 %38, label %39, label %43

39:                                               ; preds = %34
  %40 = load ptr, ptr %3, align 8
  %41 = getelementptr inbounds nuw %struct.re_guts, ptr %40, i32 0, i32 4
  %42 = load ptr, ptr %41, align 8
  call void @free(ptr noundef %42) #2
  br label %43

43:                                               ; preds = %39, %34
  %44 = load ptr, ptr %3, align 8
  %45 = getelementptr inbounds nuw %struct.re_guts, ptr %44, i32 0, i32 5
  %46 = load ptr, ptr %45, align 8
  %47 = icmp ne ptr %46, null
  br i1 %47, label %48, label %52

48:                                               ; preds = %43
  %49 = load ptr, ptr %3, align 8
  %50 = getelementptr inbounds nuw %struct.re_guts, ptr %49, i32 0, i32 5
  %51 = load ptr, ptr %50, align 8
  call void @free(ptr noundef %51) #2
  br label %52

52:                                               ; preds = %48, %43
  %53 = load ptr, ptr %3, align 8
  %54 = getelementptr inbounds nuw %struct.re_guts, ptr %53, i32 0, i32 15
  %55 = load ptr, ptr %54, align 8
  %56 = icmp ne ptr %55, null
  br i1 %56, label %57, label %61

57:                                               ; preds = %52
  %58 = load ptr, ptr %3, align 8
  %59 = getelementptr inbounds nuw %struct.re_guts, ptr %58, i32 0, i32 15
  %60 = load ptr, ptr %59, align 8
  call void @free(ptr noundef %60) #2
  br label %61

61:                                               ; preds = %57, %52
  %62 = load ptr, ptr %3, align 8
  call void @free(ptr noundef %62) #2
  br label %63

63:                                               ; preds = %61, %20, %8
  ret void
}

; Function Attrs: nounwind
declare void @free(ptr noundef) #1


!llvm.module.flags = !{!0, !1, !2, !3}

!0 = !{i32 1, !"wchar_size", i32 4}
!1 = !{i32 8, !"PIC Level", i32 2}
!2 = !{i32 7, !"uwtable", i32 2}
!3 = !{i32 7, !"frame-pointer", i32 2}
